target datalayout = "e-m:e-p270:32:32-p271:32:32-p272:64:64-i64:64-i128:128-f80:128-n8:16:32:64-S128"
target triple = "x86_64-pc-linux-gnu"

%"struct.faiss::IndexBinary" = type { ptr, i32, i32, i64, i8, i8, i32 }
%"struct.faiss::IndexBinaryFromFloat" = type <{ %"struct.faiss::IndexBinary", ptr, i8, [7 x i8] }>
%"struct.faiss::Index" = type <{ ptr, i32, [4 x i8], i64, i8, i8, [2 x i8], i32, float, [4 x i8] }>

; Function Attrs: mustprogress uwtable
define void @_ZN5faiss20IndexBinaryFromFloatC2EPNS_5IndexE(ptr noundef nonnull align 8 dereferenceable(41) %0, ptr noundef %1) unnamed_addr #1 align 2 {
  %3 = alloca ptr, align 8
  %4 = alloca ptr, align 8
  store ptr %0, ptr %3, align 8
  store ptr %1, ptr %4, align 8
  %5 = load ptr, ptr %3, align 8
  %6 = load ptr, ptr %4, align 8
  %7 = getelementptr inbounds %"struct.faiss::Index", ptr %6, i32 0, i32 1
  %8 = load i32, ptr %7, align 8
  %9 = sext i32 %8 to i64
  call void @_ZN5faiss11IndexBinaryC2ElNS_10MetricTypeE(ptr noundef nonnull align 8 dereferenceable(32) %5, i64 noundef %9, i32 noundef 1)
  store ptr getelementptr inbounds ({ [16 x ptr] }, ptr @_ZTVN5faiss20IndexBinaryFromFloatE, i32 0, i32 0, i32 2), ptr %5, align 8
  %10 = getelementptr inbounds %"struct.faiss::IndexBinaryFromFloat", ptr %5, i32 0, i32 1
  %11 = load ptr, ptr %4, align 8
  store ptr %11, ptr %10, align 8
  %12 = getelementptr inbounds %"struct.faiss::IndexBinaryFromFloat", ptr %5, i32 0, i32 2
  store i8 0, ptr %12, align 8
  %13 = load ptr, ptr %4, align 8
  %14 = getelementptr inbounds %"struct.faiss::Index", ptr %13, i32 0, i32 5
  %15 = load i8, ptr %14, align 1
  %16 = trunc i8 %15 to i1
  %17 = getelementptr inbounds %"struct.faiss::IndexBinary", ptr %5, i32 0, i32 5
  %18 = zext i1 %16 to i8
  store i8 %18, ptr %17, align 1
  %19 = load ptr, ptr %4, align 8
  %20 = getelementptr inbounds %"struct.faiss::Index", ptr %19, i32 0, i32 3
  %21 = load i64, ptr %20, align 8
  %22 = getelementptr inbounds %"struct.faiss::IndexBinary", ptr %5, i32 0, i32 3
  store i64 %21, ptr %22, align 8
  ret void
}