; Function Attrs: mustprogress uwtable
define void @_ZN5faiss20IndexBinaryFromFloatC2EPNS_5IndexE(ptr noundef nonnull align 8 dereferenceable(41) %0, ptr noundef %1) unnamed_addr #1 align 2 {
  %3 = getelementptr inbounds i8, ptr %1, i64 8
  %4 = load i32, ptr %3, align 8
  %5 = sext i32 %4 to i64
  tail call void @_ZN5faiss11IndexBinaryC2ElNS_10MetricTypeE(ptr noundef nonnull align 8 dereferenceable(32) %0, i64 noundef %5, i32 noundef 1)
  store ptr getelementptr inbounds ({ [16 x ptr] }, ptr @_ZTVN5faiss20IndexBinaryFromFloatE, i64 0, i32 0, i64 2), ptr %0, align 8
  %6 = getelementptr inbounds i8, ptr %0, i64 32
  store ptr %1, ptr %6, align 8
  %7 = getelementptr inbounds i8, ptr %0, i64 40
  store i8 0, ptr %7, align 8
  %8 = getelementptr inbounds i8, ptr %1, i64 25
  %9 = load i8, ptr %8, align 1
  %10 = and i8 %9, 1
  %11 = getelementptr inbounds i8, ptr %0, i64 25
  store i8 %10, ptr %11, align 1
  %12 = getelementptr inbounds i8, ptr %1, i64 16
  %13 = load i64, ptr %12, align 8
  %14 = getelementptr inbounds i8, ptr %0, i64 16
  store i64 %13, ptr %14, align 8
  ret void
}